; ModuleID = '31/1819.c'
source_filename = "31/1819.c"
target datalayout = "e-m:e-p270:32:32-p271:32:32-p272:64:64-i64:64-f80:128-n8:16:32:64-S128"
target triple = "x86_64-pc-linux-gnu"

@.str = private unnamed_addr constant [3 x i8] c"%s\00", align 1
@.str.1 = private unnamed_addr constant [19 x i8] c"%s %s %s %s %s %s\0A\00", align 1

; Function Attrs: noinline nounwind uwtable
define dso_local i32 @main() #0 {
  %1 = call i32 @doit(i32 1)
  ret i32 0
}

; Function Attrs: noinline nounwind uwtable
define dso_local i32 @doit(i32 %0) #0 {
  %2 = alloca i32, align 4
  %3 = alloca i32, align 4
  %4 = alloca [20 x i8], align 16
  %5 = alloca [20 x i8], align 16
  %6 = alloca [20 x i8], align 16
  %7 = alloca [20 x i8], align 16
  %8 = alloca [20 x i8], align 16
  %9 = alloca [20 x i8], align 16
  store i32 %0, i32* %3, align 4
  %10 = getelementptr inbounds [20 x i8], [20 x i8]* %4, i64 0, i64 0
  %11 = call i32 (i8*, ...) @__isoc99_scanf(i8* getelementptr inbounds ([3 x i8], [3 x i8]* @.str, i64 0, i64 0), i8* %10)
  %12 = getelementptr inbounds [20 x i8], [20 x i8]* %4, i64 0, i64 0
  %13 = load i8, i8* %12, align 16
  %14 = sext i8 %13 to i32
  %15 = icmp ne i32 %14, 101
  br i1 %15, label %16, label %28

16:                                               ; preds = %1
  %17 = getelementptr inbounds [20 x i8], [20 x i8]* %5, i64 0, i64 0
  %18 = call i32 (i8*, ...) @__isoc99_scanf(i8* getelementptr inbounds ([3 x i8], [3 x i8]* @.str, i64 0, i64 0), i8* %17)
  %19 = getelementptr inbounds [20 x i8], [20 x i8]* %6, i64 0, i64 0
  %20 = call i32 (i8*, ...) @__isoc99_scanf(i8* getelementptr inbounds ([3 x i8], [3 x i8]* @.str, i64 0, i64 0), i8* %19)
  %21 = getelementptr inbounds [20 x i8], [20 x i8]* %7, i64 0, i64 0
  %22 = call i32 (i8*, ...) @__isoc99_scanf(i8* getelementptr inbounds ([3 x i8], [3 x i8]* @.str, i64 0, i64 0), i8* %21)
  %23 = getelementptr inbounds [20 x i8], [20 x i8]* %8, i64 0, i64 0
  %24 = call i32 (i8*, ...) @__isoc99_scanf(i8* getelementptr inbounds ([3 x i8], [3 x i8]* @.str, i64 0, i64 0), i8* %23)
  %25 = getelementptr inbounds [20 x i8], [20 x i8]* %9, i64 0, i64 0
  %26 = call i32 (i8*, ...) @__isoc99_scanf(i8* getelementptr inbounds ([3 x i8], [3 x i8]* @.str, i64 0, i64 0), i8* %25)
  %27 = call i32 @doit(i32 1)
  br label %29

28:                                               ; preds = %1
  store i32 0, i32* %2, align 4
  br label %37

29:                                               ; preds = %16
  %30 = getelementptr inbounds [20 x i8], [20 x i8]* %4, i64 0, i64 0
  %31 = getelementptr inbounds [20 x i8], [20 x i8]* %5, i64 0, i64 0
  %32 = getelementptr inbounds [20 x i8], [20 x i8]* %6, i64 0, i64 0
  %33 = getelementptr inbounds [20 x i8], [20 x i8]* %7, i64 0, i64 0
  %34 = getelementptr inbounds [20 x i8], [20 x i8]* %8, i64 0, i64 0
  %35 = getelementptr inbounds [20 x i8], [20 x i8]* %9, i64 0, i64 0
  %36 = call i32 (i8*, ...) @printf(i8* getelementptr inbounds ([19 x i8], [19 x i8]* @.str.1, i64 0, i64 0), i8* %30, i8* %31, i8* %32, i8* %33, i8* %34, i8* %35)
  br label %37

37:                                               ; preds = %29, %28
  %38 = load i32, i32* %2, align 4
  ret i32 %38
}

declare dso_local i32 @__isoc99_scanf(i8*, ...) #1

declare dso_local i32 @printf(i8*, ...) #1


!llvm.module.flags = !{!0}
!llvm.ident = !{!1}

!0 = !{i32 1, !"wchar_size", i32 4}
!1 = !{!"clang version 10.0.0-4ubuntu1 "}
